; Function Attrs: mustprogress nofree norecurse nosync nounwind uwtable
define dso_local void @_ZN7V3Graph14userClearEdgesEv(ptr noundef nonnull readonly align 8 captures(none) dereferenceable(24) %0) #18 align 2 {
  %2 = getelementptr inbounds nuw i8, ptr %0, i64 8
  %.sroa.015.023 = load ptr, ptr %2, align 8, !tbaa !127
  %.not24 = icmp eq ptr %.sroa.015.023, null
  br i1 %.not24, label %._crit_edge, label %.lr.ph26

.loopexit.loopexit:                               ; preds = %.lr.ph
  %.sroa.015.0.pre = load ptr, ptr %3, align 8, !tbaa !127
  br label %.loopexit

.loopexit:                                        ; preds = %.loopexit.loopexit, %.lr.ph26
  %.sroa.015.0 = phi ptr [ %.sroa.015.0.pre, %.loopexit.loopexit ], [ %4, %.lr.ph26 ]
  %.not = icmp eq ptr %.sroa.015.0, null
  br i1 %.not, label %._crit_edge, label %.lr.ph26

._crit_edge:                                      ; preds = %.loopexit, %1
  ret void

.lr.ph26:                                         ; preds = %1, %.loopexit
  %.sroa.015.025 = phi ptr [ %.sroa.015.0, %.loopexit ], [ %.sroa.015.023, %1 ]
  %3 = getelementptr inbounds nuw i8, ptr %.sroa.015.025, i64 8
  %4 = load ptr, ptr %3, align 8, !tbaa !24
  %.not.i8 = icmp eq ptr %4, null
  %5 = select i1 %.not.i8, ptr %.sroa.015.025, ptr %4
  tail call void @llvm.prefetch.p0(ptr nonnull %5, i32 1, i32 3, i32 1)
  %6 = getelementptr inbounds nuw i8, ptr %.sroa.015.025, i64 24
  %7 = load ptr, ptr %6, align 8, !tbaa !26
  %.not2021 = icmp eq ptr %7, null
  br i1 %.not2021, label %.loopexit, label %.lr.ph

.lr.ph:                                           ; preds = %.lr.ph26, %.lr.ph
  %.sroa.09.022 = phi ptr [ %9, %.lr.ph ], [ %7, %.lr.ph26 ]
  %8 = getelementptr inbounds nuw i8, ptr %.sroa.09.022, i64 8
  %9 = load ptr, ptr %8, align 8, !tbaa !31
  %.not.i = icmp eq ptr %9, null
  %10 = select i1 %.not.i, ptr %.sroa.09.022, ptr %9
  tail call void @llvm.prefetch.p0(ptr nonnull %10, i32 1, i32 3, i32 1)
  %11 = getelementptr inbounds nuw i8, ptr %.sroa.09.022, i64 64
  store ptr null, ptr %11, align 8, !tbaa !20
  br i1 %.not.i, label %.loopexit.loopexit, label %.lr.ph
}